ccopy_reg
_reconstructor
p0
(cpandas.core.frame
DataFrame
p1
c__builtin__
object
p2
Ntp3
Rp4
(dp5
S'_metadata'
p6
(lp7
sS'_typ'
p8
S'dataframe'
p9
sS'_data'
p10
g0
(cpandas.core.internals
BlockManager
p11
g2
Ntp12
Rp13
((lp14
cpandas.core.index
_new_Index
p15
(cpandas.core.index
Index
p16
(dp17
S'data'
p18
cnumpy.core.multiarray
_reconstruct
p19
(cnumpy
ndarray
p20
(I0
tp21
S'b'
p22
tp23
Rp24
(I1
(I13
tp25
cnumpy
dtype
p26
(S'O8'
p27
I0
I1
tp28
Rp29
(I3
S'|'
p30
NNNI-1
I-1
I63
tp31
bI00
(lp32
S'filename'
p33
aS'is_perm'
p34
aS'has_noise'
p35
aS'GraphType'
p36
aS'bandNumber'
p37
aS'adaptiveLSH'
p38
aS'LSHType'
p39
aS'rank_score'
p40
aS'rank_score_upper'
p41
aS'correct_score'
p42
aS'correct_score_upper'
p43
aS'correct_score_hungarian'
p44
aS'pairs_computed'
p45
atp46
bsS'name'
p47
Nstp48
Rp49
ag15
(g16
(dp50
g18
g19
(g20
(I0
tp51
g22
tp52
Rp53
(I1
(I0
tp54
g29
I00
(lp55
tp56
bsg47
Nstp57
Rp58
a(lp59
g19
(g20
(I0
tp60
g22
tp61
Rp62
(I1
(I13
I0
tp63
g29
I00
(lp64
tp65
ba(lp66
g15
(g16
(dp67
g18
g19
(g20
(I0
tp68
g22
tp69
Rp70
(I1
(I13
tp71
g29
I00
(lp72
g33
ag34
ag35
ag36
ag37
ag38
ag39
ag40
ag41
ag42
ag43
ag44
ag45
atp73
bsg47
Nstp74
Rp75
a(dp76
S'0.14.1'
p77
(dp78
S'axes'
p79
g14
sS'blocks'
p80
(lp81
(dp82
S'mgr_locs'
p83
c__builtin__
slice
p84
(I0
I13
I1
tp85
Rp86
sS'values'
p87
g62
sasstp88
bsb.